target datalayout = "e-m:e-p270:32:32-p271:32:32-p272:64:64-i64:64-i128:128-f80:128-n8:16:32:64-S128"
target triple = "x86_64-pc-linux-gnu"

%struct._voip_calls_tapinfo = type { ptr, ptr, ptr, ptr, i32, ptr, [1 x ptr], i32, ptr, i32, i32, i32, ptr, ptr, i32, ptr, i32, i8, i8, ptr, i32, i32, i32, i8, i32, ptr, ptr, ptr, i8, i32, i32, i32, i16, i32, i8, i32, i32, i32, i32, i32, i32, i8 }

@.str.23 = private unnamed_addr constant [8 x i8] c"unistim\00", align 1
@.str.24 = private unnamed_addr constant [5 x i8] c"voip\00", align 1

; Function Attrs: inlinehint nounwind null_pointer_is_valid sspstrong uwtable
define internal ptr @tap_base_to_id(ptr noundef %0, i32 noundef %1) #4 {
  %3 = alloca ptr, align 8
  %4 = alloca i32, align 4
  store ptr %0, ptr %3, align 8
  store i32 %1, ptr %4, align 4
  %5 = load ptr, ptr %3, align 8
  %6 = ptrtoint ptr %5 to i64
  %7 = load i32, ptr %4, align 4
  %8 = sext i32 %7 to i64
  %9 = add i64 %6, %8
  %10 = inttoptr i64 %9 to ptr
  ret ptr %10
}

; Function Attrs: null_pointer_is_valid sspstrong uwtable
define internal void @remove_tap_listener_voip_calls(ptr noundef %0) #0 {
  %2 = alloca ptr, align 8
  store ptr %0, ptr %2, align 8
  %3 = load ptr, ptr %2, align 8
  %4 = call ptr @tap_base_to_id(ptr noundef %3, i32 noundef 20)
  call void @remove_tap_listener(ptr noundef %4)
  ret void
}

; Function Attrs: null_pointer_is_valid sspstrong uwtable
define internal void @remove_tap_listener_unistim_calls(ptr noundef %0) #0 {
  %2 = alloca ptr, align 8
  store ptr %0, ptr %2, align 8
  %3 = load ptr, ptr %2, align 8
  %4 = call ptr @tap_base_to_id(ptr noundef %3, i32 noundef 19)
  call void @remove_tap_listener(ptr noundef %4)
  ret void
}

; Function Attrs: null_pointer_is_valid sspstrong uwtable
define internal void @remove_tap_listener_t38(ptr noundef %0) #0 {
  %2 = alloca ptr, align 8
  store ptr %0, ptr %2, align 8
  %3 = load ptr, ptr %2, align 8
  %4 = call ptr @tap_base_to_id(ptr noundef %3, i32 noundef 18)
  call void @remove_tap_listener(ptr noundef %4)
  ret void
}

; Function Attrs: null_pointer_is_valid sspstrong uwtable
define internal void @remove_tap_listener_skinny_calls(ptr noundef %0) #0 {
  %2 = alloca ptr, align 8
  store ptr %0, ptr %2, align 8
  %3 = load ptr, ptr %2, align 8
  %4 = call ptr @tap_base_to_id(ptr noundef %3, i32 noundef 16)
  call void @remove_tap_listener(ptr noundef %4)
  ret void
}

; Function Attrs: null_pointer_is_valid sspstrong uwtable
define internal void @remove_tap_listener_sip_calls(ptr noundef %0) #0 {
  %2 = alloca ptr, align 8
  store ptr %0, ptr %2, align 8
  %3 = load ptr, ptr %2, align 8
  %4 = call ptr @tap_base_to_id(ptr noundef %3, i32 noundef 15)
  call void @remove_tap_listener(ptr noundef %4)
  ret void
}

; Function Attrs: null_pointer_is_valid sspstrong uwtable
define internal void @remove_tap_listener_sdp_calls(ptr noundef %0) #0 {
  %2 = alloca ptr, align 8
  store ptr %0, ptr %2, align 8
  %3 = load ptr, ptr %2, align 8
  %4 = call ptr @tap_base_to_id(ptr noundef %3, i32 noundef 14)
  call void @remove_tap_listener(ptr noundef %4)
  ret void
}

; Function Attrs: null_pointer_is_valid sspstrong uwtable
define internal void @remove_tap_listener_sccp_calls(ptr noundef %0) #0 {
  %2 = alloca ptr, align 8
  store ptr %0, ptr %2, align 8
  %3 = load ptr, ptr %2, align 8
  %4 = call ptr @tap_base_to_id(ptr noundef %3, i32 noundef 13)
  call void @remove_tap_listener(ptr noundef %4)
  %5 = load ptr, ptr %2, align 8
  %6 = call ptr @tap_base_to_id(ptr noundef %5, i32 noundef 17)
  call void @remove_tap_listener(ptr noundef %6)
  ret void
}

; Function Attrs: null_pointer_is_valid sspstrong uwtable
define internal void @remove_tap_listener_rtp_event(ptr noundef %0) #0 {
  %2 = alloca ptr, align 8
  store ptr %0, ptr %2, align 8
  %3 = load ptr, ptr %2, align 8
  %4 = call ptr @tap_base_to_id(ptr noundef %3, i32 noundef 12)
  call void @remove_tap_listener(ptr noundef %4)
  ret void
}

; Function Attrs: null_pointer_is_valid sspstrong uwtable
define internal void @remove_tap_listener_rtp(ptr noundef %0) #0 {
  %2 = alloca ptr, align 8
  store ptr %0, ptr %2, align 8
  %3 = load ptr, ptr %2, align 8
  %4 = call ptr @tap_base_to_id(ptr noundef %3, i32 noundef 11)
  call void @remove_tap_listener(ptr noundef %4)
  ret void
}

; Function Attrs: null_pointer_is_valid sspstrong uwtable
define internal void @remove_tap_listener_q931_calls(ptr noundef %0) #0 {
  %2 = alloca ptr, align 8
  store ptr %0, ptr %2, align 8
  %3 = load ptr, ptr %2, align 8
  %4 = call ptr @tap_base_to_id(ptr noundef %3, i32 noundef 10)
  call void @remove_tap_listener(ptr noundef %4)
  ret void
}

; Function Attrs: null_pointer_is_valid sspstrong uwtable
define internal void @remove_tap_listener_mtp3_calls(ptr noundef %0) #0 {
  %2 = alloca ptr, align 8
  store ptr %0, ptr %2, align 8
  %3 = load ptr, ptr %2, align 8
  %4 = call ptr @tap_base_to_id(ptr noundef %3, i32 noundef 9)
  call void @remove_tap_listener(ptr noundef %4)
  %5 = load ptr, ptr %2, align 8
  %6 = call ptr @tap_base_to_id(ptr noundef %5, i32 noundef 6)
  call void @remove_tap_listener(ptr noundef %6)
  ret void
}

; Function Attrs: null_pointer_is_valid sspstrong uwtable
define internal void @remove_tap_listener_mgcp_calls(ptr noundef %0) #0 {
  %2 = alloca ptr, align 8
  store ptr %0, ptr %2, align 8
  %3 = load ptr, ptr %2, align 8
  %4 = call ptr @tap_base_to_id(ptr noundef %3, i32 noundef 8)
  call void @remove_tap_listener(ptr noundef %4)
  ret void
}

; Function Attrs: null_pointer_is_valid sspstrong uwtable
define internal void @remove_tap_listener_isup_calls(ptr noundef %0) #0 {
  %2 = alloca ptr, align 8
  store ptr %0, ptr %2, align 8
  %3 = load ptr, ptr %2, align 8
  %4 = call ptr @tap_base_to_id(ptr noundef %3, i32 noundef 5)
  call void @remove_tap_listener(ptr noundef %4)
  ret void
}

; Function Attrs: null_pointer_is_valid sspstrong uwtable
define internal void @remove_tap_listener_iax2_calls(ptr noundef %0) #0 {
  %2 = alloca ptr, align 8
  store ptr %0, ptr %2, align 8
  %3 = load ptr, ptr %2, align 8
  %4 = call ptr @tap_base_to_id(ptr noundef %3, i32 noundef 4)
  call void @remove_tap_listener(ptr noundef %4)
  ret void
}

; Function Attrs: null_pointer_is_valid sspstrong uwtable
define internal void @remove_tap_listener_h248_calls(ptr noundef %0) #0 {
  %2 = alloca ptr, align 8
  store ptr %0, ptr %2, align 8
  %3 = load ptr, ptr %2, align 8
  %4 = call ptr @tap_base_to_id(ptr noundef %3, i32 noundef 3)
  call void @remove_tap_listener(ptr noundef %4)
  %5 = load ptr, ptr %2, align 8
  %6 = call ptr @tap_base_to_id(ptr noundef %5, i32 noundef 7)
  call void @remove_tap_listener(ptr noundef %6)
  ret void
}

; Function Attrs: null_pointer_is_valid sspstrong uwtable
define internal void @remove_tap_listener_h245dg_calls(ptr noundef %0) #0 {
  %2 = alloca ptr, align 8
  store ptr %0, ptr %2, align 8
  %3 = load ptr, ptr %2, align 8
  %4 = getelementptr inbounds nuw %struct._voip_calls_tapinfo, ptr %3, i32 0, i32 25
  %5 = load ptr, ptr %4, align 8
  %6 = icmp ne ptr %5, null
  br i1 %6, label %7, label %13

7:                                                ; preds = %1
  %8 = load ptr, ptr %2, align 8
  %9 = getelementptr inbounds nuw %struct._voip_calls_tapinfo, ptr %8, i32 0, i32 25
  %10 = load ptr, ptr %9, align 8
  call void @g_free(ptr noundef %10)
  %11 = load ptr, ptr %2, align 8
  %12 = getelementptr inbounds nuw %struct._voip_calls_tapinfo, ptr %11, i32 0, i32 25
  store ptr null, ptr %12, align 8
  br label %13

13:                                               ; preds = %7, %1
  %14 = load ptr, ptr %2, align 8
  %15 = call ptr @tap_base_to_id(ptr noundef %14, i32 noundef 2)
  call void @remove_tap_listener(ptr noundef %15)
  ret void
}

; Function Attrs: null_pointer_is_valid sspstrong uwtable
define internal void @remove_tap_listener_h225_calls(ptr noundef %0) #0 {
  %2 = alloca ptr, align 8
  store ptr %0, ptr %2, align 8
  %3 = load ptr, ptr %2, align 8
  %4 = call ptr @tap_base_to_id(ptr noundef %3, i32 noundef 1)
  call void @remove_tap_listener(ptr noundef %4)
  ret void
}

; Function Attrs: null_pointer_is_valid sspstrong uwtable
define internal void @remove_tap_listener_actrace_calls(ptr noundef %0) #0 {
  %2 = alloca ptr, align 8
  store ptr %0, ptr %2, align 8
  %3 = load ptr, ptr %2, align 8
  %4 = call ptr @tap_base_to_id(ptr noundef %3, i32 noundef 0)
  call void @remove_tap_listener(ptr noundef %4)
  ret void
}

; Function Attrs: null_pointer_is_valid sspstrong uwtable
define hidden void @voip_calls_remove_all_tap_listeners(ptr noundef %0) #0 {
  %2 = alloca ptr, align 8
  store ptr %0, ptr %2, align 8
  %3 = load ptr, ptr %2, align 8
  call void @remove_tap_listener_actrace_calls(ptr noundef %3)
  %4 = load ptr, ptr %2, align 8
  call void @remove_tap_listener_h225_calls(ptr noundef %4)
  %5 = load ptr, ptr %2, align 8
  call void @remove_tap_listener_h245dg_calls(ptr noundef %5)
  %6 = load ptr, ptr %2, align 8
  call void @remove_tap_listener_h248_calls(ptr noundef %6)
  %7 = load ptr, ptr %2, align 8
  call void @remove_tap_listener_iax2_calls(ptr noundef %7)
  %8 = load ptr, ptr %2, align 8
  call void @remove_tap_listener_isup_calls(ptr noundef %8)
  %9 = load ptr, ptr %2, align 8
  call void @remove_tap_listener_mgcp_calls(ptr noundef %9)
  %10 = load ptr, ptr %2, align 8
  call void @remove_tap_listener_mtp3_calls(ptr noundef %10)
  %11 = load ptr, ptr %2, align 8
  call void @remove_tap_listener_q931_calls(ptr noundef %11)
  %12 = load ptr, ptr %2, align 8
  call void @remove_tap_listener_rtp(ptr noundef %12)
  %13 = load ptr, ptr %2, align 8
  call void @remove_tap_listener_rtp_event(ptr noundef %13)
  %14 = load ptr, ptr %2, align 8
  call void @remove_tap_listener_sccp_calls(ptr noundef %14)
  %15 = load ptr, ptr %2, align 8
  call void @remove_tap_listener_sdp_calls(ptr noundef %15)
  %16 = load ptr, ptr %2, align 8
  call void @remove_tap_listener_sip_calls(ptr noundef %16)
  %17 = load ptr, ptr %2, align 8
  call void @remove_tap_listener_skinny_calls(ptr noundef %17)
  %18 = load ptr, ptr %2, align 8
  call void @remove_tap_listener_t38(ptr noundef %18)
  %19 = call i32 @find_tap_id(ptr noundef @.str.23)
  %20 = icmp ne i32 %19, 0
  br i1 %20, label %21, label %23

21:                                               ; preds = %1
  %22 = load ptr, ptr %2, align 8
  call void @remove_tap_listener_unistim_calls(ptr noundef %22)
  br label %23

23:                                               ; preds = %21, %1
  %24 = call i32 @find_tap_id(ptr noundef @.str.24)
  %25 = icmp ne i32 %24, 0
  br i1 %25, label %26, label %28

26:                                               ; preds = %23
  %27 = load ptr, ptr %2, align 8
  call void @remove_tap_listener_voip_calls(ptr noundef %27)
  br label %28

28:                                               ; preds = %26, %23
  ret void
}