; Function Attrs: null_pointer_is_valid sspstrong uwtable
define hidden void @voip_calls_remove_all_tap_listeners(ptr noundef %0) local_unnamed_addr #0 {
  tail call void @remove_tap_listener(ptr noundef %0)
  %2 = ptrtoint ptr %0 to i64
  %3 = add i64 %2, 1
  %4 = inttoptr i64 %3 to ptr
  tail call void @remove_tap_listener(ptr noundef %4)
  %5 = getelementptr inbounds nuw i8, ptr %0, i64 160
  %6 = load ptr, ptr %5, align 8
  %.not.i = icmp eq ptr %6, null
  br i1 %.not.i, label %remove_tap_listener_h245dg_calls.exit, label %7

7:                                                ; preds = %1
  tail call void @g_free(ptr noundef nonnull %6)
  store ptr null, ptr %5, align 8
  br label %remove_tap_listener_h245dg_calls.exit

remove_tap_listener_h245dg_calls.exit:            ; preds = %1, %7
  %8 = add i64 %2, 2
  %9 = inttoptr i64 %8 to ptr
  tail call void @remove_tap_listener(ptr noundef %9)
  %10 = add i64 %2, 3
  %11 = inttoptr i64 %10 to ptr
  tail call void @remove_tap_listener(ptr noundef %11)
  %12 = add i64 %2, 7
  %13 = inttoptr i64 %12 to ptr
  tail call void @remove_tap_listener(ptr noundef %13)
  %14 = add i64 %2, 4
  %15 = inttoptr i64 %14 to ptr
  tail call void @remove_tap_listener(ptr noundef %15)
  %16 = add i64 %2, 5
  %17 = inttoptr i64 %16 to ptr
  tail call void @remove_tap_listener(ptr noundef %17)
  %18 = add i64 %2, 8
  %19 = inttoptr i64 %18 to ptr
  tail call void @remove_tap_listener(ptr noundef %19)
  %20 = add i64 %2, 9
  %21 = inttoptr i64 %20 to ptr
  tail call void @remove_tap_listener(ptr noundef %21)
  %22 = add i64 %2, 6
  %23 = inttoptr i64 %22 to ptr
  tail call void @remove_tap_listener(ptr noundef %23)
  %24 = add i64 %2, 10
  %25 = inttoptr i64 %24 to ptr
  tail call void @remove_tap_listener(ptr noundef %25)
  %26 = add i64 %2, 11
  %27 = inttoptr i64 %26 to ptr
  tail call void @remove_tap_listener(ptr noundef %27)
  %28 = add i64 %2, 12
  %29 = inttoptr i64 %28 to ptr
  tail call void @remove_tap_listener(ptr noundef %29)
  %30 = add i64 %2, 13
  %31 = inttoptr i64 %30 to ptr
  tail call void @remove_tap_listener(ptr noundef %31)
  %32 = add i64 %2, 17
  %33 = inttoptr i64 %32 to ptr
  tail call void @remove_tap_listener(ptr noundef %33)
  %34 = add i64 %2, 14
  %35 = inttoptr i64 %34 to ptr
  tail call void @remove_tap_listener(ptr noundef %35)
  %36 = add i64 %2, 15
  %37 = inttoptr i64 %36 to ptr
  tail call void @remove_tap_listener(ptr noundef %37)
  %38 = add i64 %2, 16
  %39 = inttoptr i64 %38 to ptr
  tail call void @remove_tap_listener(ptr noundef %39)
  %40 = add i64 %2, 18
  %41 = inttoptr i64 %40 to ptr
  tail call void @remove_tap_listener(ptr noundef %41)
  %42 = tail call i32 @find_tap_id(ptr noundef nonnull @.str.23)
  %.not = icmp eq i32 %42, 0
  br i1 %.not, label %46, label %43

43:                                               ; preds = %remove_tap_listener_h245dg_calls.exit
  %44 = add i64 %2, 19
  %45 = inttoptr i64 %44 to ptr
  tail call void @remove_tap_listener(ptr noundef %45)
  br label %46

46:                                               ; preds = %43, %remove_tap_listener_h245dg_calls.exit
  %47 = tail call i32 @find_tap_id(ptr noundef nonnull @.str.24)
  %.not18 = icmp eq i32 %47, 0
  br i1 %.not18, label %51, label %48

48:                                               ; preds = %46
  %49 = add i64 %2, 20
  %50 = inttoptr i64 %49 to ptr
  tail call void @remove_tap_listener(ptr noundef %50)
  br label %51

51:                                               ; preds = %48, %46
  ret void
}